target datalayout = "e-m:e-p270:32:32-p271:32:32-p272:64:64-i64:64-i128:128-f80:128-n8:16:32:64-S128"
target triple = "x86_64-pc-linux-gnu"

%struct._Unwind_Exception = type { i64, ptr, i64, i64 }
%"struct.__cxxabiv1::__cxa_exception" = type { ptr, i64, ptr, ptr, ptr, ptr, ptr, i32, i32, ptr, ptr, ptr, ptr, %struct._Unwind_Exception }
%"struct.__cxxabiv1::__cxa_eh_globals" = type { ptr, i32 }

; Function Attrs: mustprogress noreturn uwtable
define dso_local void @__cxa_throw(ptr noundef %0, ptr noundef %1, ptr noundef %2) #11 {
  %4 = alloca ptr, align 8
  %5 = alloca ptr, align 8
  %6 = alloca ptr, align 8
  %7 = alloca ptr, align 8
  %8 = alloca ptr, align 8
  store ptr %0, ptr %4, align 8, !tbaa !15
  store ptr %1, ptr %5, align 8, !tbaa !32
  store ptr %2, ptr %6, align 8, !tbaa !15
  call void @llvm.lifetime.start.p0(i64 8, ptr %7) #14
  %9 = call ptr @__cxa_get_globals()
  store ptr %9, ptr %7, align 8, !tbaa !18
  %10 = load ptr, ptr %7, align 8, !tbaa !18
  %11 = getelementptr inbounds nuw %"struct.__cxxabiv1::__cxa_eh_globals", ptr %10, i32 0, i32 1
  %12 = load i32, ptr %11, align 8, !tbaa !30
  %13 = add i32 %12, 1
  store i32 %13, ptr %11, align 8, !tbaa !30
  call void @llvm.lifetime.start.p0(i64 8, ptr %8) #14
  %14 = load ptr, ptr %4, align 8, !tbaa !15
  %15 = load ptr, ptr %5, align 8, !tbaa !32
  %16 = load ptr, ptr %6, align 8, !tbaa !15
  %17 = call ptr @__cxa_init_primary_exception(ptr noundef %14, ptr noundef %15, ptr noundef %16) #14
  store ptr %17, ptr %8, align 8, !tbaa !13
  %18 = load ptr, ptr %8, align 8, !tbaa !13
  %19 = getelementptr inbounds nuw %"struct.__cxxabiv1::__cxa_exception", ptr %18, i32 0, i32 1
  store i64 1, ptr %19, align 8, !tbaa !33
  %20 = load ptr, ptr %8, align 8, !tbaa !13
  %21 = getelementptr inbounds nuw %"struct.__cxxabiv1::__cxa_exception", ptr %20, i32 0, i32 13
  %22 = call i32 @_Unwind_RaiseException(ptr noundef %21)
  %23 = load ptr, ptr %8, align 8, !tbaa !13
  call void @_ZN10__cxxabiv1L12failed_throwEPNS_15__cxa_exceptionE(ptr noundef %23) #16
  unreachable
}