; Function Attrs: mustprogress noreturn uwtable
define dso_local void @__cxa_throw(ptr noundef initializes((-120, -80), (-32, -16)) %0, ptr noundef %1, ptr noundef %2) local_unnamed_addr #10 {
  %4 = tail call ptr @__cxa_get_globals()
  %5 = getelementptr inbounds nuw i8, ptr %4, i64 8
  %6 = load i32, ptr %5, align 8, !tbaa !18
  %7 = add i32 %6, 1
  store i32 %7, ptr %5, align 8, !tbaa !18
  %8 = tail call ptr @__cxa_init_primary_exception(ptr noundef %0, ptr noundef %1, ptr noundef %2) #17
  %9 = getelementptr inbounds nuw i8, ptr %8, i64 8
  store i64 1, ptr %9, align 8, !tbaa !20
  %10 = getelementptr inbounds nuw i8, ptr %8, i64 96
  %11 = tail call i32 @_Unwind_RaiseException(ptr noundef nonnull %10)
  tail call fastcc void @_ZN10__cxxabiv1L12failed_throwEPNS_15__cxa_exceptionE(ptr noundef nonnull %8) #18
  unreachable
}